target datalayout = "e-m:e-p270:32:32-p271:32:32-p272:64:64-i64:64-i128:128-f80:128-n8:16:32:64-S128"
target triple = "x86_64-pc-linux-gnu"

%struct.ZColorWatermark = type { i64, i64 }

; Function Attrs: mustprogress nounwind uwtable
define hidden noundef zeroext i1 @_ZNK15ZColorWatermark6coversERKS_(ptr noundef nonnull align 8 dereferenceable(16) %0, ptr noundef nonnull align 8 dereferenceable(16) %1) #1 align 2 {
  %3 = alloca i1, align 1
  %4 = alloca ptr, align 8
  %5 = alloca ptr, align 8
  store ptr %0, ptr %4, align 8
  store ptr %1, ptr %5, align 8
  %6 = load ptr, ptr %4, align 8
  %7 = getelementptr inbounds %struct.ZColorWatermark, ptr %6, i32 0, i32 1
  %8 = load i64, ptr %7, align 8
  %9 = icmp eq i64 %8, 0
  br i1 %9, label %10, label %11

10:                                               ; preds = %2
  store i1 true, ptr %3, align 1
  br label %24

11:                                               ; preds = %2
  %12 = load ptr, ptr %5, align 8
  %13 = getelementptr inbounds %struct.ZColorWatermark, ptr %12, i32 0, i32 1
  %14 = load i64, ptr %13, align 8
  %15 = icmp eq i64 %14, 0
  br i1 %15, label %16, label %17

16:                                               ; preds = %11
  store i1 false, ptr %3, align 1
  br label %24

17:                                               ; preds = %11
  %18 = getelementptr inbounds %struct.ZColorWatermark, ptr %6, i32 0, i32 1
  %19 = load i64, ptr %18, align 8
  %20 = load ptr, ptr %5, align 8
  %21 = getelementptr inbounds %struct.ZColorWatermark, ptr %20, i32 0, i32 1
  %22 = load i64, ptr %21, align 8
  %23 = icmp uge i64 %19, %22
  store i1 %23, ptr %3, align 1
  br label %24

24:                                               ; preds = %17, %16, %10
  %25 = load i1, ptr %3, align 1
  ret i1 %25
}